; ModuleID = '5/530.c'
source_filename = "5/530.c"
target datalayout = "e-m:e-p270:32:32-p271:32:32-p272:64:64-i64:64-f80:128-n8:16:32:64-S128"
target triple = "x86_64-pc-linux-gnu"

@.str = private unnamed_addr constant [4 x i8] c"%lf\00", align 1
@.str.1 = private unnamed_addr constant [3 x i8] c"%s\00", align 1
@.str.2 = private unnamed_addr constant [6 x i8] c"error\00", align 1
@.str.3 = private unnamed_addr constant [4 x i8] c"yes\00", align 1
@.str.4 = private unnamed_addr constant [3 x i8] c"no\00", align 1

; Function Attrs: noinline nounwind uwtable
define dso_local i32 @main() #0 {
  %1 = alloca i32, align 4
  %2 = alloca double, align 8
  %3 = alloca [501 x i8], align 16
  %4 = alloca [501 x i8], align 16
  %5 = alloca i32, align 4
  %6 = alloca i32, align 4
  %7 = alloca i32, align 4
  %8 = alloca i32, align 4
  %9 = alloca i32, align 4
  %10 = alloca double, align 8
  store i32 0, i32* %1, align 4
  %11 = call i32 (i8*, ...) @__isoc99_scanf(i8* getelementptr inbounds ([4 x i8], [4 x i8]* @.str, i64 0, i64 0), double* %2)
  %12 = getelementptr inbounds [501 x i8], [501 x i8]* %3, i64 0, i64 0
  %13 = call i32 (i8*, ...) @__isoc99_scanf(i8* getelementptr inbounds ([3 x i8], [3 x i8]* @.str.1, i64 0, i64 0), i8* %12)
  %14 = getelementptr inbounds [501 x i8], [501 x i8]* %4, i64 0, i64 0
  %15 = call i32 (i8*, ...) @__isoc99_scanf(i8* getelementptr inbounds ([3 x i8], [3 x i8]* @.str.1, i64 0, i64 0), i8* %14)
  store i32 0, i32* %5, align 4
  store i32 0, i32* %7, align 4
  %16 = getelementptr inbounds [501 x i8], [501 x i8]* %3, i64 0, i64 0
  %17 = call i64 @strlen(i8* %16) #3
  %18 = trunc i64 %17 to i32
  store i32 %18, i32* %8, align 4
  %19 = getelementptr inbounds [501 x i8], [501 x i8]* %4, i64 0, i64 0
  %20 = call i64 @strlen(i8* %19) #3
  %21 = trunc i64 %20 to i32
  store i32 %21, i32* %9, align 4
  store i32 0, i32* %6, align 4
  br label %22

22:                                               ; preds = %117, %0
  %23 = load i32, i32* %6, align 4
  %24 = sext i32 %23 to i64
  %25 = getelementptr inbounds [501 x i8], [501 x i8]* %3, i64 0, i64 %24
  %26 = load i8, i8* %25, align 1
  %27 = sext i8 %26 to i32
  %28 = icmp ne i32 %27, 0
  br i1 %28, label %36, label %29

29:                                               ; preds = %22
  %30 = load i32, i32* %6, align 4
  %31 = sext i32 %30 to i64
  %32 = getelementptr inbounds [501 x i8], [501 x i8]* %4, i64 0, i64 %31
  %33 = load i8, i8* %32, align 1
  %34 = sext i8 %33 to i32
  %35 = icmp ne i32 %34, 0
  br label %36

36:                                               ; preds = %29, %22
  %37 = phi i1 [ true, %22 ], [ %35, %29 ]
  br i1 %37, label %38, label %120

38:                                               ; preds = %36
  %39 = load i32, i32* %8, align 4
  %40 = load i32, i32* %9, align 4
  %41 = icmp ne i32 %39, %40
  br i1 %41, label %42, label %43

42:                                               ; preds = %38
  store i32 1, i32* %5, align 4
  br label %120

43:                                               ; preds = %38
  %44 = load i32, i32* %6, align 4
  %45 = sext i32 %44 to i64
  %46 = getelementptr inbounds [501 x i8], [501 x i8]* %3, i64 0, i64 %45
  %47 = load i8, i8* %46, align 1
  %48 = sext i8 %47 to i32
  %49 = icmp ne i32 %48, 65
  br i1 %49, label %50, label %72

50:                                               ; preds = %43
  %51 = load i32, i32* %6, align 4
  %52 = sext i32 %51 to i64
  %53 = getelementptr inbounds [501 x i8], [501 x i8]* %3, i64 0, i64 %52
  %54 = load i8, i8* %53, align 1
  %55 = sext i8 %54 to i32
  %56 = icmp ne i32 %55, 84
  br i1 %56, label %57, label %72

57:                                               ; preds = %50
  %58 = load i32, i32* %6, align 4
  %59 = sext i32 %58 to i64
  %60 = getelementptr inbounds [501 x i8], [501 x i8]* %3, i64 0, i64 %59
  %61 = load i8, i8* %60, align 1
  %62 = sext i8 %61 to i32
  %63 = icmp ne i32 %62, 67
  br i1 %63, label %64, label %72

64:                                               ; preds = %57
  %65 = load i32, i32* %6, align 4
  %66 = sext i32 %65 to i64
  %67 = getelementptr inbounds [501 x i8], [501 x i8]* %3, i64 0, i64 %66
  %68 = load i8, i8* %67, align 1
  %69 = sext i8 %68 to i32
  %70 = icmp ne i32 %69, 71
  br i1 %70, label %71, label %72

71:                                               ; preds = %64
  store i32 2, i32* %5, align 4
  br label %120

72:                                               ; preds = %64, %57, %50, %43
  %73 = load i32, i32* %6, align 4
  %74 = sext i32 %73 to i64
  %75 = getelementptr inbounds [501 x i8], [501 x i8]* %4, i64 0, i64 %74
  %76 = load i8, i8* %75, align 1
  %77 = sext i8 %76 to i32
  %78 = icmp ne i32 %77, 65
  br i1 %78, label %79, label %101

79:                                               ; preds = %72
  %80 = load i32, i32* %6, align 4
  %81 = sext i32 %80 to i64
  %82 = getelementptr inbounds [501 x i8], [501 x i8]* %4, i64 0, i64 %81
  %83 = load i8, i8* %82, align 1
  %84 = sext i8 %83 to i32
  %85 = icmp ne i32 %84, 84
  br i1 %85, label %86, label %101

86:                                               ; preds = %79
  %87 = load i32, i32* %6, align 4
  %88 = sext i32 %87 to i64
  %89 = getelementptr inbounds [501 x i8], [501 x i8]* %4, i64 0, i64 %88
  %90 = load i8, i8* %89, align 1
  %91 = sext i8 %90 to i32
  %92 = icmp ne i32 %91, 67
  br i1 %92, label %93, label %101

93:                                               ; preds = %86
  %94 = load i32, i32* %6, align 4
  %95 = sext i32 %94 to i64
  %96 = getelementptr inbounds [501 x i8], [501 x i8]* %4, i64 0, i64 %95
  %97 = load i8, i8* %96, align 1
  %98 = sext i8 %97 to i32
  %99 = icmp ne i32 %98, 71
  br i1 %99, label %100, label %101

100:                                              ; preds = %93
  store i32 3, i32* %5, align 4
  br label %120

101:                                              ; preds = %93, %86, %79, %72
  %102 = load i32, i32* %6, align 4
  %103 = sext i32 %102 to i64
  %104 = getelementptr inbounds [501 x i8], [501 x i8]* %3, i64 0, i64 %103
  %105 = load i8, i8* %104, align 1
  %106 = sext i8 %105 to i32
  %107 = load i32, i32* %6, align 4
  %108 = sext i32 %107 to i64
  %109 = getelementptr inbounds [501 x i8], [501 x i8]* %4, i64 0, i64 %108
  %110 = load i8, i8* %109, align 1
  %111 = sext i8 %110 to i32
  %112 = icmp ne i32 %106, %111
  br i1 %112, label %113, label %116

113:                                              ; preds = %101
  %114 = load i32, i32* %7, align 4
  %115 = add nsw i32 %114, 1
  store i32 %115, i32* %7, align 4
  br label %116

116:                                              ; preds = %113, %101
  br label %117

117:                                              ; preds = %116
  %118 = load i32, i32* %6, align 4
  %119 = add nsw i32 %118, 1
  store i32 %119, i32* %6, align 4
  br label %22

120:                                              ; preds = %100, %71, %42, %36
  %121 = load i32, i32* %7, align 4
  %122 = load i32, i32* %8, align 4
  %123 = sdiv i32 %121, %122
  %124 = sub nsw i32 1, %123
  %125 = sitofp i32 %124 to double
  store double %125, double* %10, align 8
  %126 = load i32, i32* %5, align 4
  %127 = icmp ne i32 %126, 0
  br i1 %127, label %128, label %130

128:                                              ; preds = %120
  %129 = call i32 (i8*, ...) @printf(i8* getelementptr inbounds ([6 x i8], [6 x i8]* @.str.2, i64 0, i64 0))
  br label %130

130:                                              ; preds = %128, %120
  %131 = load double, double* %10, align 8
  %132 = load double, double* %2, align 8
  %133 = fcmp ogt double %131, %132
  br i1 %133, label %134, label %139

134:                                              ; preds = %130
  %135 = load i32, i32* %5, align 4
  %136 = icmp eq i32 %135, 0
  br i1 %136, label %137, label %139

137:                                              ; preds = %134
  %138 = call i32 (i8*, ...) @printf(i8* getelementptr inbounds ([4 x i8], [4 x i8]* @.str.3, i64 0, i64 0))
  br label %149

139:                                              ; preds = %134, %130
  %140 = load i32, i32* %5, align 4
  %141 = icmp eq i32 %140, 0
  br i1 %141, label %142, label %148

142:                                              ; preds = %139
  %143 = load double, double* %10, align 8
  %144 = load double, double* %2, align 8
  %145 = fcmp ole double %143, %144
  br i1 %145, label %146, label %148

146:                                              ; preds = %142
  %147 = call i32 (i8*, ...) @printf(i8* getelementptr inbounds ([3 x i8], [3 x i8]* @.str.4, i64 0, i64 0))
  br label %148

148:                                              ; preds = %146, %142, %139
  br label %149

149:                                              ; preds = %148, %137
  ret i32 0
}

declare dso_local i32 @__isoc99_scanf(i8*, ...) #1

; Function Attrs: nounwind readonly
declare dso_local i64 @strlen(i8*) #2

declare dso_local i32 @printf(i8*, ...) #1


!llvm.module.flags = !{!0}
!llvm.ident = !{!1}

!0 = !{i32 1, !"wchar_size", i32 4}
!1 = !{!"clang version 10.0.0-4ubuntu1 "}
