; ModuleID = 'source-C-CXX/4/530.c'
source_filename = "source-C-CXX/4/530.c"
target datalayout = "e-m:e-p270:32:32-p271:32:32-p272:64:64-i64:64-f80:128-n8:16:32:64-S128"
target triple = "x86_64-pc-linux-gnu"

@.str = private unnamed_addr constant [4 x i8] c"%lf\00", align 1
@.str.1 = private unnamed_addr constant [3 x i8] c"%s\00", align 1
@.str.2 = private unnamed_addr constant [6 x i8] c"error\00", align 1
@.str.3 = private unnamed_addr constant [4 x i8] c"yes\00", align 1
@.str.4 = private unnamed_addr constant [3 x i8] c"no\00", align 1

; Function Attrs: nofree nounwind sspstrong uwtable
define dso_local i32 @main() local_unnamed_addr #0 {
  %1 = alloca double, align 8
  %2 = alloca [501 x i8], align 16
  %3 = alloca [501 x i8], align 16
  %4 = bitcast double* %1 to i8*
  call void @llvm.lifetime.start.p0i8(i64 8, i8* nonnull %4) #4
  %5 = getelementptr inbounds [501 x i8], [501 x i8]* %2, i64 0, i64 0
  call void @llvm.lifetime.start.p0i8(i64 501, i8* nonnull %5) #4
  %6 = getelementptr inbounds [501 x i8], [501 x i8]* %3, i64 0, i64 0
  call void @llvm.lifetime.start.p0i8(i64 501, i8* nonnull %6) #4
  %7 = call i32 (i8*, ...) @__isoc99_scanf(i8* getelementptr inbounds ([4 x i8], [4 x i8]* @.str, i64 0, i64 0), double* nonnull %1)
  %8 = call i32 (i8*, ...) @__isoc99_scanf(i8* getelementptr inbounds ([3 x i8], [3 x i8]* @.str.1, i64 0, i64 0), i8* nonnull %5)
  %9 = call i32 (i8*, ...) @__isoc99_scanf(i8* getelementptr inbounds ([3 x i8], [3 x i8]* @.str.1, i64 0, i64 0), i8* nonnull %6)
  %10 = call i64 @strlen(i8* noundef nonnull %5) #5
  %11 = trunc i64 %10 to i32
  %12 = call i64 @strlen(i8* noundef nonnull %6) #5
  %13 = trunc i64 %12 to i32
  %14 = icmp eq i32 %11, %13
  br i1 %14, label %15, label %32

15:                                               ; preds = %0, %27
  %16 = phi i64 [ %31, %27 ], [ 0, %0 ]
  %17 = phi i32 [ %30, %27 ], [ 0, %0 ]
  %18 = getelementptr inbounds [501 x i8], [501 x i8]* %2, i64 0, i64 %16
  %19 = load i8, i8* %18, align 1, !tbaa !5
  switch i8 %19, label %47 [
    i8 0, label %20
    i8 65, label %24
    i8 84, label %24
    i8 67, label %24
    i8 71, label %24
  ]

20:                                               ; preds = %15
  %21 = getelementptr inbounds [501 x i8], [501 x i8]* %3, i64 0, i64 %16
  %22 = load i8, i8* %21, align 1, !tbaa !5
  %23 = icmp eq i8 %22, 0
  br i1 %23, label %38, label %47

24:                                               ; preds = %15, %15, %15, %15
  %25 = getelementptr inbounds [501 x i8], [501 x i8]* %3, i64 0, i64 %16
  %26 = load i8, i8* %25, align 1, !tbaa !5
  switch i8 %26, label %47 [
    i8 65, label %27
    i8 84, label %27
    i8 67, label %27
    i8 71, label %27
  ]

27:                                               ; preds = %24, %24, %24, %24
  %28 = icmp ne i8 %19, %26
  %29 = zext i1 %28 to i32
  %30 = add nuw nsw i32 %17, %29
  %31 = add nuw i64 %16, 1
  br label %15, !llvm.loop !8

32:                                               ; preds = %0
  %33 = load i8, i8* %5, align 16, !tbaa !5
  %34 = icmp eq i8 %33, 0
  %35 = load i8, i8* %6, align 16
  %36 = icmp eq i8 %35, 0
  %37 = select i1 %34, i1 %36, i1 false
  br i1 %37, label %38, label %47

38:                                               ; preds = %32, %20
  %39 = phi i32 [ %17, %20 ], [ 0, %32 ]
  %40 = sdiv i32 %39, %11
  %41 = sub nsw i32 1, %40
  %42 = sitofp i32 %41 to double
  %43 = load double, double* %1, align 8, !tbaa !10
  %44 = fcmp olt double %43, %42
  br i1 %44, label %47, label %45

45:                                               ; preds = %38
  %46 = fcmp ult double %43, %42
  br i1 %46, label %50, label %47

47:                                               ; preds = %15, %24, %45, %38, %32, %20
  %48 = phi i8* [ getelementptr inbounds ([6 x i8], [6 x i8]* @.str.2, i64 0, i64 0), %20 ], [ getelementptr inbounds ([6 x i8], [6 x i8]* @.str.2, i64 0, i64 0), %32 ], [ getelementptr inbounds ([4 x i8], [4 x i8]* @.str.3, i64 0, i64 0), %38 ], [ getelementptr inbounds ([3 x i8], [3 x i8]* @.str.4, i64 0, i64 0), %45 ], [ getelementptr inbounds ([6 x i8], [6 x i8]* @.str.2, i64 0, i64 0), %24 ], [ getelementptr inbounds ([6 x i8], [6 x i8]* @.str.2, i64 0, i64 0), %15 ]
  %49 = call i32 (i8*, ...) @printf(i8* nonnull dereferenceable(1) %48)
  br label %50

50:                                               ; preds = %47, %45
  call void @llvm.lifetime.end.p0i8(i64 501, i8* nonnull %6) #4
  call void @llvm.lifetime.end.p0i8(i64 501, i8* nonnull %5) #4
  call void @llvm.lifetime.end.p0i8(i64 8, i8* nonnull %4) #4
  ret i32 0
}

; Function Attrs: argmemonly mustprogress nofree nosync nounwind willreturn
declare void @llvm.lifetime.start.p0i8(i64 immarg, i8* nocapture) #1

; Function Attrs: nofree nounwind
declare noundef i32 @__isoc99_scanf(i8* nocapture noundef readonly, ...) local_unnamed_addr #2

; Function Attrs: argmemonly mustprogress nofree nounwind readonly willreturn
declare i64 @strlen(i8* nocapture) local_unnamed_addr #3

; Function Attrs: nofree nounwind
declare noundef i32 @printf(i8* nocapture noundef readonly, ...) local_unnamed_addr #2

; Function Attrs: argmemonly mustprogress nofree nosync nounwind willreturn
declare void @llvm.lifetime.end.p0i8(i64 immarg, i8* nocapture) #1


!llvm.module.flags = !{!0, !1, !2, !3}
!llvm.ident = !{!4}

!0 = !{i32 1, !"wchar_size", i32 4}
!1 = !{i32 7, !"PIC Level", i32 2}
!2 = !{i32 7, !"PIE Level", i32 2}
!3 = !{i32 7, !"uwtable", i32 1}
!4 = !{!"clang version 13.0.0"}
!5 = !{!6, !6, i64 0}
!6 = !{!"omnipotent char", !7, i64 0}
!7 = !{!"Simple C/C++ TBAA"}
!8 = distinct !{!8, !9}
!9 = !{!"llvm.loop.mustprogress"}
!10 = !{!11, !11, i64 0}
!11 = !{!"double", !6, i64 0}
